target datalayout = "e-m:e-p270:32:32-p271:32:32-p272:64:64-i64:64-i128:128-f80:128-n8:16:32:64-S128"
target triple = "x86_64-pc-linux-gnu"

%"class.llvm::SmallVectorImpl.6" = type { %"class.llvm::SmallVectorTemplateBase.7" }
%"class.llvm::SmallVectorTemplateBase.7" = type { %"class.llvm::SmallVectorTemplateCommon.8" }
%"class.llvm::SmallVectorTemplateCommon.8" = type { %"class.llvm::SmallVectorBase" }
%"class.llvm::SmallVectorBase" = type { ptr, i32, i32 }
%"class.llvm::DIBuilder" = type { ptr, ptr, ptr, ptr, ptr, ptr, ptr, %"class.llvm::SmallVector", %"class.llvm::SmallVector", %"class.llvm::SmallVector.0", %"class.llvm::SmallVector.5", %"class.llvm::SmallVector", %"class.llvm::MapVector", %"class.llvm::SmallVector", i8, [7 x i8], %"class.llvm::DenseMap.15" }
%"class.llvm::SmallVector.0" = type { %"class.llvm::SmallVectorImpl.1", %"struct.llvm::SmallVectorStorage.4" }
%"class.llvm::SmallVectorImpl.1" = type { %"class.llvm::SmallVectorTemplateBase.2" }
%"class.llvm::SmallVectorTemplateBase.2" = type { %"class.llvm::SmallVectorTemplateCommon.3" }
%"class.llvm::SmallVectorTemplateCommon.3" = type { %"class.llvm::SmallVectorBase" }
%"struct.llvm::SmallVectorStorage.4" = type { [32 x i8] }
%"class.llvm::SmallVector.5" = type { %"class.llvm::SmallVectorImpl.6", %"struct.llvm::SmallVectorStorage.9" }
%"struct.llvm::SmallVectorStorage.9" = type { [32 x i8] }
%"class.llvm::MapVector" = type { %"class.llvm::DenseMap", %"class.llvm::SmallVector.10" }
%"class.llvm::DenseMap" = type <{ ptr, i32, i32, i32, [4 x i8] }>
%"class.llvm::SmallVector.10" = type { %"class.llvm::SmallVectorImpl.11" }
%"class.llvm::SmallVectorImpl.11" = type { %"class.llvm::SmallVectorTemplateBase.12" }
%"class.llvm::SmallVectorTemplateBase.12" = type { %"class.llvm::SmallVectorTemplateCommon.13" }
%"class.llvm::SmallVectorTemplateCommon.13" = type { %"class.llvm::SmallVectorBase" }
%"class.llvm::SmallVector" = type { %"class.llvm::SmallVectorImpl", %"struct.llvm::SmallVectorStorage" }
%"class.llvm::SmallVectorImpl" = type { %"class.llvm::SmallVectorTemplateBase" }
%"class.llvm::SmallVectorTemplateBase" = type { %"class.llvm::SmallVectorTemplateCommon" }
%"class.llvm::SmallVectorTemplateCommon" = type { %"class.llvm::SmallVectorBase" }
%"struct.llvm::SmallVectorStorage" = type { [32 x i8] }
%"class.llvm::DenseMap.15" = type <{ ptr, i32, i32, i32, [4 x i8] }>
%"struct.llvm::detail::PunnedPointer" = type { [8 x i8] }
%"class.llvm::PointerUnion.208" = type { %"class.llvm::pointer_union_detail::PointerUnionMembers.209" }
%"class.llvm::pointer_union_detail::PointerUnionMembers.209" = type { %"class.llvm::pointer_union_detail::PointerUnionMembers.210" }
%"class.llvm::pointer_union_detail::PointerUnionMembers.210" = type { %"class.llvm::pointer_union_detail::PointerUnionMembers.211" }
%"class.llvm::pointer_union_detail::PointerUnionMembers.211" = type { %"class.llvm::PointerIntPair.212" }
%"class.llvm::PointerIntPair.212" = type { %"struct.llvm::detail::PunnedPointer" }
%class.anon = type { i8 }

; Function Attrs: mustprogress nounwind uwtable
define linkonce_odr hidden noundef ptr @_ZN4llvm20pointer_union_detail22PointerUnionUIntTraitsIJPNS_10DIVariableEPNS_12DIExpressionEEE18getFromVoidPointerEPv(ptr noundef %0) #0 comdat align 2 {
  %2 = alloca ptr, align 8
  store ptr %0, ptr %2, align 8
  %3 = load ptr, ptr %2, align 8
  ret ptr %3
}

; Function Attrs: mustprogress nounwind uwtable
define linkonce_odr hidden noundef i64 @_ZNK4llvm6detail13PunnedPointerIPvE5asIntEv(ptr noundef nonnull align 8 dereferenceable(8) %0) #0 comdat align 2 {
  %2 = alloca ptr, align 8
  %3 = alloca i64, align 8
  store ptr %0, ptr %2, align 8
  %4 = load ptr, ptr %2, align 8
  store i64 0, ptr %3, align 8
  %5 = getelementptr inbounds nuw %"struct.llvm::detail::PunnedPointer", ptr %4, i32 0, i32 0
  %6 = getelementptr inbounds [8 x i8], ptr %5, i64 0, i64 0
  call void @llvm.memcpy.p0.p0.i64(ptr align 8 %3, ptr align 8 %6, i64 8, i1 false)
  %7 = load i64, ptr %3, align 8
  ret i64 %7
}

; Function Attrs: mustprogress nounwind uwtable
define linkonce_odr hidden noundef i64 @_ZN4llvm18PointerIntPairInfoIPvLj1ENS_20pointer_union_detail22PointerUnionUIntTraitsIJPNS_10DIVariableEPNS_12DIExpressionEEEEE6getIntEl(i64 noundef %0) #0 comdat align 2 {
  %2 = alloca i64, align 8
  store i64 %0, ptr %2, align 8
  %3 = load i64, ptr %2, align 8
  %4 = ashr i64 %3, 2
  %5 = and i64 %4, 1
  ret i64 %5
}

; Function Attrs: mustprogress nounwind uwtable
define linkonce_odr hidden noundef ptr @_ZN4llvm18PointerIntPairInfoIPvLj1ENS_20pointer_union_detail22PointerUnionUIntTraitsIJPNS_10DIVariableEPNS_12DIExpressionEEEEE10getPointerEl(i64 noundef %0) #0 comdat align 2 {
  %2 = alloca i64, align 8
  store i64 %0, ptr %2, align 8
  %3 = load i64, ptr %2, align 8
  %4 = and i64 %3, -8
  %5 = inttoptr i64 %4 to ptr
  %6 = call noundef ptr @_ZN4llvm20pointer_union_detail22PointerUnionUIntTraitsIJPNS_10DIVariableEPNS_12DIExpressionEEE18getFromVoidPointerEPv(ptr noundef %5)
  ret ptr %6
}

; Function Attrs: mustprogress nounwind uwtable
define linkonce_odr hidden noundef i64 @_ZNK4llvm6detail13PunnedPointerIPvEcvlEv(ptr noundef nonnull align 8 dereferenceable(8) %0) #0 comdat align 2 {
  %2 = alloca ptr, align 8
  store ptr %0, ptr %2, align 8
  %3 = load ptr, ptr %2, align 8
  %4 = call noundef i64 @_ZNK4llvm6detail13PunnedPointerIPvE5asIntEv(ptr noundef nonnull align 8 dereferenceable(8) %3)
  ret i64 %4
}

; Function Attrs: mustprogress nounwind uwtable
define linkonce_odr hidden noundef i32 @_ZNK4llvm14PointerIntPairIPvLj1EiNS_20pointer_union_detail22PointerUnionUIntTraitsIJPNS_10DIVariableEPNS_12DIExpressionEEEENS_18PointerIntPairInfoIS1_Lj1ES8_EEE6getIntEv(ptr noundef nonnull align 8 dereferenceable(8) %0) #0 comdat align 2 {
  %2 = alloca ptr, align 8
  store ptr %0, ptr %2, align 8
  %3 = load ptr, ptr %2, align 8
  %4 = getelementptr inbounds nuw %"class.llvm::PointerIntPair.212", ptr %3, i32 0, i32 0
  %5 = call noundef i64 @_ZNK4llvm6detail13PunnedPointerIPvEcvlEv(ptr noundef nonnull align 8 dereferenceable(8) %4)
  %6 = call noundef i64 @_ZN4llvm18PointerIntPairInfoIPvLj1ENS_20pointer_union_detail22PointerUnionUIntTraitsIJPNS_10DIVariableEPNS_12DIExpressionEEEEE6getIntEl(i64 noundef %5)
  %7 = trunc i64 %6 to i32
  ret i32 %7
}

; Function Attrs: mustprogress nounwind uwtable
define linkonce_odr hidden noundef ptr @_ZN4llvm21PointerLikeTypeTraitsIPNS_10DIVariableEE18getFromVoidPointerEPv(ptr noundef %0) #0 comdat align 2 {
  %2 = alloca ptr, align 8
  store ptr %0, ptr %2, align 8
  %3 = load ptr, ptr %2, align 8
  ret ptr %3
}

; Function Attrs: mustprogress nounwind uwtable
define linkonce_odr hidden noundef ptr @_ZN4llvm21PointerLikeTypeTraitsIPNS_12DIExpressionEE18getFromVoidPointerEPv(ptr noundef %0) #0 comdat align 2 {
  %2 = alloca ptr, align 8
  store ptr %0, ptr %2, align 8
  %3 = load ptr, ptr %2, align 8
  ret ptr %3
}

; Function Attrs: mustprogress nounwind uwtable
define linkonce_odr hidden noundef ptr @_ZNK4llvm14PointerIntPairIPvLj1EiNS_20pointer_union_detail22PointerUnionUIntTraitsIJPNS_10DIVariableEPNS_12DIExpressionEEEENS_18PointerIntPairInfoIS1_Lj1ES8_EEE10getPointerEv(ptr noundef nonnull align 8 dereferenceable(8) %0) #0 comdat align 2 {
  %2 = alloca ptr, align 8
  store ptr %0, ptr %2, align 8
  %3 = load ptr, ptr %2, align 8
  %4 = getelementptr inbounds nuw %"class.llvm::PointerIntPair.212", ptr %3, i32 0, i32 0
  %5 = call noundef i64 @_ZNK4llvm6detail13PunnedPointerIPvEcvlEv(ptr noundef nonnull align 8 dereferenceable(8) %4)
  %6 = call noundef ptr @_ZN4llvm18PointerIntPairInfoIPvLj1ENS_20pointer_union_detail22PointerUnionUIntTraitsIJPNS_10DIVariableEPNS_12DIExpressionEEEEE10getPointerEl(i64 noundef %5)
  ret ptr %6
}

; Function Attrs: mustprogress nounwind uwtable
define linkonce_odr hidden noundef zeroext i1 @_ZN4llvm24CastInfoPointerUnionImplIJPNS_10DIVariableEPNS_12DIExpressionEEE10isPossibleIS4_EEbRNS_12PointerUnionIJS2_S4_EEE(ptr noundef nonnull align 8 dereferenceable(8) %0) #0 comdat align 2 {
  %2 = alloca ptr, align 8
  store ptr %0, ptr %2, align 8
  %3 = load ptr, ptr %2, align 8
  %4 = getelementptr inbounds nuw %"class.llvm::pointer_union_detail::PointerUnionMembers.211", ptr %3, i32 0, i32 0
  %5 = call noundef i32 @_ZNK4llvm14PointerIntPairIPvLj1EiNS_20pointer_union_detail22PointerUnionUIntTraitsIJPNS_10DIVariableEPNS_12DIExpressionEEEENS_18PointerIntPairInfoIS1_Lj1ES8_EEE6getIntEv(ptr noundef nonnull align 8 dereferenceable(8) %4)
  %6 = sext i32 %5 to i64
  %7 = icmp eq i64 %6, 1
  ret i1 %7
}

; Function Attrs: mustprogress nounwind uwtable
define linkonce_odr hidden noundef ptr @_ZN4llvm24CastInfoPointerUnionImplIJPNS_10DIVariableEPNS_12DIExpressionEEE6doCastIS2_EET_RNS_12PointerUnionIJS2_S4_EEE(ptr noundef nonnull align 8 dereferenceable(8) %0) #0 comdat align 2 {
  %2 = alloca ptr, align 8
  store ptr %0, ptr %2, align 8
  %3 = load ptr, ptr %2, align 8
  %4 = getelementptr inbounds nuw %"class.llvm::pointer_union_detail::PointerUnionMembers.211", ptr %3, i32 0, i32 0
  %5 = call noundef ptr @_ZNK4llvm14PointerIntPairIPvLj1EiNS_20pointer_union_detail22PointerUnionUIntTraitsIJPNS_10DIVariableEPNS_12DIExpressionEEEENS_18PointerIntPairInfoIS1_Lj1ES8_EEE10getPointerEv(ptr noundef nonnull align 8 dereferenceable(8) %4)
  %6 = call noundef ptr @_ZN4llvm21PointerLikeTypeTraitsIPNS_10DIVariableEE18getFromVoidPointerEPv(ptr noundef %5)
  ret ptr %6
}

; Function Attrs: mustprogress nounwind uwtable
define linkonce_odr hidden noundef ptr @_ZN4llvm24CastInfoPointerUnionImplIJPNS_10DIVariableEPNS_12DIExpressionEEE6doCastIS4_EET_RNS_12PointerUnionIJS2_S4_EEE(ptr noundef nonnull align 8 dereferenceable(8) %0) #0 comdat align 2 {
  %2 = alloca ptr, align 8
  store ptr %0, ptr %2, align 8
  %3 = load ptr, ptr %2, align 8
  %4 = getelementptr inbounds nuw %"class.llvm::pointer_union_detail::PointerUnionMembers.211", ptr %3, i32 0, i32 0
  %5 = call noundef ptr @_ZNK4llvm14PointerIntPairIPvLj1EiNS_20pointer_union_detail22PointerUnionUIntTraitsIJPNS_10DIVariableEPNS_12DIExpressionEEEENS_18PointerIntPairInfoIS1_Lj1ES8_EEE10getPointerEv(ptr noundef nonnull align 8 dereferenceable(8) %4)
  %6 = call noundef ptr @_ZN4llvm21PointerLikeTypeTraitsIPNS_12DIExpressionEE18getFromVoidPointerEPv(ptr noundef %5)
  ret ptr %6
}

; Function Attrs: mustprogress nounwind uwtable
define linkonce_odr hidden noundef zeroext i1 @_ZN4llvm8CastInfoIPNS_12DIExpressionENS_12PointerUnionIJPNS_10DIVariableES2_EEEvE10isPossibleERS6_(ptr noundef nonnull align 8 dereferenceable(8) %0) #0 comdat align 2 {
  %2 = alloca ptr, align 8
  store ptr %0, ptr %2, align 8
  %3 = load ptr, ptr %2, align 8
  %4 = call noundef zeroext i1 @_ZN4llvm24CastInfoPointerUnionImplIJPNS_10DIVariableEPNS_12DIExpressionEEE10isPossibleIS4_EEbRNS_12PointerUnionIJS2_S4_EEE(ptr noundef nonnull align 8 dereferenceable(8) %3)
  ret i1 %4
}

; Function Attrs: mustprogress nounwind uwtable
define linkonce_odr hidden noundef ptr @_ZN4llvm8CastInfoIPNS_10DIVariableENS_12PointerUnionIJS2_PNS_12DIExpressionEEEEvE6doCastERS6_(ptr noundef nonnull align 8 dereferenceable(8) %0) #0 comdat align 2 {
  %2 = alloca ptr, align 8
  store ptr %0, ptr %2, align 8
  %3 = load ptr, ptr %2, align 8
  %4 = call noundef ptr @_ZN4llvm24CastInfoPointerUnionImplIJPNS_10DIVariableEPNS_12DIExpressionEEE6doCastIS2_EET_RNS_12PointerUnionIJS2_S4_EEE(ptr noundef nonnull align 8 dereferenceable(8) %3)
  ret ptr %4
}

; Function Attrs: mustprogress nounwind uwtable
define linkonce_odr hidden noundef ptr @_ZN4llvm8CastInfoIPNS_12DIExpressionENS_12PointerUnionIJPNS_10DIVariableES2_EEEvE6doCastERS6_(ptr noundef nonnull align 8 dereferenceable(8) %0) #0 comdat align 2 {
  %2 = alloca ptr, align 8
  store ptr %0, ptr %2, align 8
  %3 = load ptr, ptr %2, align 8
  %4 = call noundef ptr @_ZN4llvm24CastInfoPointerUnionImplIJPNS_10DIVariableEPNS_12DIExpressionEEE6doCastIS4_EET_RNS_12PointerUnionIJS2_S4_EEE(ptr noundef nonnull align 8 dereferenceable(8) %3)
  ret ptr %4
}

; Function Attrs: mustprogress nounwind uwtable
define linkonce_odr hidden noundef zeroext i1 @_ZN4llvm28ConstStrippingForwardingCastIPNS_12DIExpressionEKNS_12PointerUnionIJPNS_10DIVariableES2_EEENS_8CastInfoIS2_S6_vEEE10isPossibleERS7_(ptr noundef nonnull align 8 dereferenceable(8) %0) #0 comdat align 2 {
  %2 = alloca ptr, align 8
  store ptr %0, ptr %2, align 8
  %3 = load ptr, ptr %2, align 8
  %4 = call noundef zeroext i1 @_ZN4llvm8CastInfoIPNS_12DIExpressionENS_12PointerUnionIJPNS_10DIVariableES2_EEEvE10isPossibleERS6_(ptr noundef nonnull align 8 dereferenceable(8) %3)
  ret i1 %4
}

; Function Attrs: mustprogress nounwind uwtable
define linkonce_odr hidden noundef ptr @_ZN4llvm4castIPNS_10DIVariableENS_12PointerUnionIJS2_PNS_12DIExpressionEEEEEEDcRT0_(ptr noundef nonnull align 8 dereferenceable(8) %0) #0 comdat {
  %2 = alloca ptr, align 8
  store ptr %0, ptr %2, align 8
  %3 = load ptr, ptr %2, align 8
  %4 = call noundef ptr @_ZN4llvm8CastInfoIPNS_10DIVariableENS_12PointerUnionIJS2_PNS_12DIExpressionEEEEvE6doCastERS6_(ptr noundef nonnull align 8 dereferenceable(8) %3)
  ret ptr %4
}

; Function Attrs: mustprogress nounwind uwtable
define linkonce_odr hidden noundef ptr @_ZN4llvm4castIPNS_12DIExpressionENS_12PointerUnionIJPNS_10DIVariableES2_EEEEEDcRT0_(ptr noundef nonnull align 8 dereferenceable(8) %0) #0 comdat {
  %2 = alloca ptr, align 8
  store ptr %0, ptr %2, align 8
  %3 = load ptr, ptr %2, align 8
  %4 = call noundef ptr @_ZN4llvm8CastInfoIPNS_12DIExpressionENS_12PointerUnionIJPNS_10DIVariableES2_EEEvE6doCastERS6_(ptr noundef nonnull align 8 dereferenceable(8) %3)
  ret ptr %4
}

; Function Attrs: mustprogress nounwind uwtable
define linkonce_odr hidden noundef zeroext i1 @_ZN4llvm3isaIPNS_12DIExpressionENS_12PointerUnionIJPNS_10DIVariableES2_EEEEEbRKT0_(ptr noundef nonnull align 8 dereferenceable(8) %0) #0 comdat {
  %2 = alloca ptr, align 8
  store ptr %0, ptr %2, align 8
  %3 = load ptr, ptr %2, align 8
  %4 = call noundef zeroext i1 @_ZN4llvm28ConstStrippingForwardingCastIPNS_12DIExpressionEKNS_12PointerUnionIJPNS_10DIVariableES2_EEENS_8CastInfoIS2_S6_vEEE10isPossibleERS7_(ptr noundef nonnull align 8 dereferenceable(8) %3)
  ret i1 %4
}

; Function Attrs: mustprogress nounwind uwtable
define linkonce_odr hidden noundef ptr @_ZN4llvm17DIGenericSubrange3getERNS_11LLVMContextEPNS_8MetadataES4_S4_S4_(ptr noundef nonnull align 8 dereferenceable(8) %0, ptr noundef %1, ptr noundef %2, ptr noundef %3, ptr noundef %4) #0 comdat align 2 {
  %6 = alloca ptr, align 8
  %7 = alloca ptr, align 8
  %8 = alloca ptr, align 8
  %9 = alloca ptr, align 8
  %10 = alloca ptr, align 8
  store ptr %0, ptr %6, align 8
  store ptr %1, ptr %7, align 8
  store ptr %2, ptr %8, align 8
  store ptr %3, ptr %9, align 8
  store ptr %4, ptr %10, align 8
  %11 = load ptr, ptr %6, align 8
  %12 = load ptr, ptr %7, align 8
  %13 = load ptr, ptr %8, align 8
  %14 = load ptr, ptr %9, align 8
  %15 = load ptr, ptr %10, align 8
  %16 = call noundef ptr @_ZN4llvm17DIGenericSubrange7getImplERNS_11LLVMContextEPNS_8MetadataES4_S4_S4_NS3_11StorageTypeEb(ptr noundef nonnull align 8 dereferenceable(8) %11, ptr noundef %12, ptr noundef %13, ptr noundef %14, ptr noundef %15, i32 noundef 0, i1 noundef zeroext true)
  ret ptr %16
}

; Function Attrs: mustprogress nounwind uwtable
define internal noundef ptr @"_ZZN4llvm9DIBuilder26getOrCreateGenericSubrangeENS_12PointerUnionIJPNS_10DIVariableEPNS_12DIExpressionEEEES6_S6_S6_ENK3$_0clES6_"(ptr noundef nonnull align 1 dereferenceable(1) %0, i64 %1) #0 align 2 {
  %3 = alloca %"class.llvm::PointerUnion.208", align 8
  %4 = alloca ptr, align 8
  %5 = getelementptr inbounds nuw %"class.llvm::PointerUnion.208", ptr %3, i32 0, i32 0
  %6 = getelementptr inbounds nuw %"class.llvm::pointer_union_detail::PointerUnionMembers.209", ptr %5, i32 0, i32 0
  %7 = getelementptr inbounds nuw %"class.llvm::pointer_union_detail::PointerUnionMembers.210", ptr %6, i32 0, i32 0
  %8 = getelementptr inbounds nuw %"class.llvm::pointer_union_detail::PointerUnionMembers.211", ptr %7, i32 0, i32 0
  %9 = getelementptr inbounds nuw %"class.llvm::PointerIntPair.212", ptr %8, i32 0, i32 0
  %10 = getelementptr inbounds nuw %"struct.llvm::detail::PunnedPointer", ptr %9, i32 0, i32 0
  store i64 %1, ptr %10, align 8
  store ptr %0, ptr %4, align 8
  %11 = call noundef zeroext i1 @_ZN4llvm3isaIPNS_12DIExpressionENS_12PointerUnionIJPNS_10DIVariableES2_EEEEEbRKT0_(ptr noundef nonnull align 8 dereferenceable(8) %3)
  br i1 %11, label %12, label %14

12:                                               ; preds = %2
  %13 = call noundef ptr @_ZN4llvm4castIPNS_12DIExpressionENS_12PointerUnionIJPNS_10DIVariableES2_EEEEEDcRT0_(ptr noundef nonnull align 8 dereferenceable(8) %3)
  br label %16

14:                                               ; preds = %2
  %15 = call noundef ptr @_ZN4llvm4castIPNS_10DIVariableENS_12PointerUnionIJS2_PNS_12DIExpressionEEEEEEDcRT0_(ptr noundef nonnull align 8 dereferenceable(8) %3)
  br label %16

16:                                               ; preds = %14, %12
  %17 = phi ptr [ %13, %12 ], [ %15, %14 ]
  ret ptr %17
}

; Function Attrs: mustprogress nounwind uwtable
define dso_local noundef ptr @_ZN4llvm9DIBuilder26getOrCreateGenericSubrangeENS_12PointerUnionIJPNS_10DIVariableEPNS_12DIExpressionEEEES6_S6_S6_(ptr noundef nonnull align 8 dereferenceable(416) %0, i64 %1, i64 %2, i64 %3, i64 %4) #0 align 2 {
  %6 = alloca %"class.llvm::PointerUnion.208", align 8
  %7 = alloca %"class.llvm::PointerUnion.208", align 8
  %8 = alloca %"class.llvm::PointerUnion.208", align 8
  %9 = alloca %"class.llvm::PointerUnion.208", align 8
  %10 = alloca ptr, align 8
  %11 = alloca %class.anon, align 1
  %12 = alloca %"class.llvm::PointerUnion.208", align 8
  %13 = alloca %"class.llvm::PointerUnion.208", align 8
  %14 = alloca %"class.llvm::PointerUnion.208", align 8
  %15 = alloca %"class.llvm::PointerUnion.208", align 8
  %16 = getelementptr inbounds nuw %"class.llvm::PointerUnion.208", ptr %6, i32 0, i32 0
  %17 = getelementptr inbounds nuw %"class.llvm::pointer_union_detail::PointerUnionMembers.209", ptr %16, i32 0, i32 0
  %18 = getelementptr inbounds nuw %"class.llvm::pointer_union_detail::PointerUnionMembers.210", ptr %17, i32 0, i32 0
  %19 = getelementptr inbounds nuw %"class.llvm::pointer_union_detail::PointerUnionMembers.211", ptr %18, i32 0, i32 0
  %20 = getelementptr inbounds nuw %"class.llvm::PointerIntPair.212", ptr %19, i32 0, i32 0
  %21 = getelementptr inbounds nuw %"struct.llvm::detail::PunnedPointer", ptr %20, i32 0, i32 0
  store i64 %1, ptr %21, align 8
  %22 = getelementptr inbounds nuw %"class.llvm::PointerUnion.208", ptr %7, i32 0, i32 0
  %23 = getelementptr inbounds nuw %"class.llvm::pointer_union_detail::PointerUnionMembers.209", ptr %22, i32 0, i32 0
  %24 = getelementptr inbounds nuw %"class.llvm::pointer_union_detail::PointerUnionMembers.210", ptr %23, i32 0, i32 0
  %25 = getelementptr inbounds nuw %"class.llvm::pointer_union_detail::PointerUnionMembers.211", ptr %24, i32 0, i32 0
  %26 = getelementptr inbounds nuw %"class.llvm::PointerIntPair.212", ptr %25, i32 0, i32 0
  %27 = getelementptr inbounds nuw %"struct.llvm::detail::PunnedPointer", ptr %26, i32 0, i32 0
  store i64 %2, ptr %27, align 8
  %28 = getelementptr inbounds nuw %"class.llvm::PointerUnion.208", ptr %8, i32 0, i32 0
  %29 = getelementptr inbounds nuw %"class.llvm::pointer_union_detail::PointerUnionMembers.209", ptr %28, i32 0, i32 0
  %30 = getelementptr inbounds nuw %"class.llvm::pointer_union_detail::PointerUnionMembers.210", ptr %29, i32 0, i32 0
  %31 = getelementptr inbounds nuw %"class.llvm::pointer_union_detail::PointerUnionMembers.211", ptr %30, i32 0, i32 0
  %32 = getelementptr inbounds nuw %"class.llvm::PointerIntPair.212", ptr %31, i32 0, i32 0
  %33 = getelementptr inbounds nuw %"struct.llvm::detail::PunnedPointer", ptr %32, i32 0, i32 0
  store i64 %3, ptr %33, align 8
  %34 = getelementptr inbounds nuw %"class.llvm::PointerUnion.208", ptr %9, i32 0, i32 0
  %35 = getelementptr inbounds nuw %"class.llvm::pointer_union_detail::PointerUnionMembers.209", ptr %34, i32 0, i32 0
  %36 = getelementptr inbounds nuw %"class.llvm::pointer_union_detail::PointerUnionMembers.210", ptr %35, i32 0, i32 0
  %37 = getelementptr inbounds nuw %"class.llvm::pointer_union_detail::PointerUnionMembers.211", ptr %36, i32 0, i32 0
  %38 = getelementptr inbounds nuw %"class.llvm::PointerIntPair.212", ptr %37, i32 0, i32 0
  %39 = getelementptr inbounds nuw %"struct.llvm::detail::PunnedPointer", ptr %38, i32 0, i32 0
  store i64 %4, ptr %39, align 8
  store ptr %0, ptr %10, align 8
  %40 = load ptr, ptr %10, align 8
  %41 = getelementptr inbounds nuw %"class.llvm::DIBuilder", ptr %40, i32 0, i32 1
  %42 = load ptr, ptr %41, align 8
  call void @llvm.memcpy.p0.p0.i64(ptr align 8 %12, ptr align 8 %6, i64 8, i1 false)
  %43 = getelementptr inbounds nuw %"class.llvm::PointerUnion.208", ptr %12, i32 0, i32 0
  %44 = getelementptr inbounds nuw %"class.llvm::pointer_union_detail::PointerUnionMembers.209", ptr %43, i32 0, i32 0
  %45 = getelementptr inbounds nuw %"class.llvm::pointer_union_detail::PointerUnionMembers.210", ptr %44, i32 0, i32 0
  %46 = getelementptr inbounds nuw %"class.llvm::pointer_union_detail::PointerUnionMembers.211", ptr %45, i32 0, i32 0
  %47 = getelementptr inbounds nuw %"class.llvm::PointerIntPair.212", ptr %46, i32 0, i32 0
  %48 = getelementptr inbounds nuw %"struct.llvm::detail::PunnedPointer", ptr %47, i32 0, i32 0
  %49 = load i64, ptr %48, align 8
  %50 = call noundef ptr @"_ZZN4llvm9DIBuilder26getOrCreateGenericSubrangeENS_12PointerUnionIJPNS_10DIVariableEPNS_12DIExpressionEEEES6_S6_S6_ENK3$_0clES6_"(ptr noundef nonnull align 1 dereferenceable(1) %11, i64 %49)
  call void @llvm.memcpy.p0.p0.i64(ptr align 8 %13, ptr align 8 %7, i64 8, i1 false)
  %51 = getelementptr inbounds nuw %"class.llvm::PointerUnion.208", ptr %13, i32 0, i32 0
  %52 = getelementptr inbounds nuw %"class.llvm::pointer_union_detail::PointerUnionMembers.209", ptr %51, i32 0, i32 0
  %53 = getelementptr inbounds nuw %"class.llvm::pointer_union_detail::PointerUnionMembers.210", ptr %52, i32 0, i32 0
  %54 = getelementptr inbounds nuw %"class.llvm::pointer_union_detail::PointerUnionMembers.211", ptr %53, i32 0, i32 0
  %55 = getelementptr inbounds nuw %"class.llvm::PointerIntPair.212", ptr %54, i32 0, i32 0
  %56 = getelementptr inbounds nuw %"struct.llvm::detail::PunnedPointer", ptr %55, i32 0, i32 0
  %57 = load i64, ptr %56, align 8
  %58 = call noundef ptr @"_ZZN4llvm9DIBuilder26getOrCreateGenericSubrangeENS_12PointerUnionIJPNS_10DIVariableEPNS_12DIExpressionEEEES6_S6_S6_ENK3$_0clES6_"(ptr noundef nonnull align 1 dereferenceable(1) %11, i64 %57)
  call void @llvm.memcpy.p0.p0.i64(ptr align 8 %14, ptr align 8 %8, i64 8, i1 false)
  %59 = getelementptr inbounds nuw %"class.llvm::PointerUnion.208", ptr %14, i32 0, i32 0
  %60 = getelementptr inbounds nuw %"class.llvm::pointer_union_detail::PointerUnionMembers.209", ptr %59, i32 0, i32 0
  %61 = getelementptr inbounds nuw %"class.llvm::pointer_union_detail::PointerUnionMembers.210", ptr %60, i32 0, i32 0
  %62 = getelementptr inbounds nuw %"class.llvm::pointer_union_detail::PointerUnionMembers.211", ptr %61, i32 0, i32 0
  %63 = getelementptr inbounds nuw %"class.llvm::PointerIntPair.212", ptr %62, i32 0, i32 0
  %64 = getelementptr inbounds nuw %"struct.llvm::detail::PunnedPointer", ptr %63, i32 0, i32 0
  %65 = load i64, ptr %64, align 8
  %66 = call noundef ptr @"_ZZN4llvm9DIBuilder26getOrCreateGenericSubrangeENS_12PointerUnionIJPNS_10DIVariableEPNS_12DIExpressionEEEES6_S6_S6_ENK3$_0clES6_"(ptr noundef nonnull align 1 dereferenceable(1) %11, i64 %65)
  call void @llvm.memcpy.p0.p0.i64(ptr align 8 %15, ptr align 8 %9, i64 8, i1 false)
  %67 = getelementptr inbounds nuw %"class.llvm::PointerUnion.208", ptr %15, i32 0, i32 0
  %68 = getelementptr inbounds nuw %"class.llvm::pointer_union_detail::PointerUnionMembers.209", ptr %67, i32 0, i32 0
  %69 = getelementptr inbounds nuw %"class.llvm::pointer_union_detail::PointerUnionMembers.210", ptr %68, i32 0, i32 0
  %70 = getelementptr inbounds nuw %"class.llvm::pointer_union_detail::PointerUnionMembers.211", ptr %69, i32 0, i32 0
  %71 = getelementptr inbounds nuw %"class.llvm::PointerIntPair.212", ptr %70, i32 0, i32 0
  %72 = getelementptr inbounds nuw %"struct.llvm::detail::PunnedPointer", ptr %71, i32 0, i32 0
  %73 = load i64, ptr %72, align 8
  %74 = call noundef ptr @"_ZZN4llvm9DIBuilder26getOrCreateGenericSubrangeENS_12PointerUnionIJPNS_10DIVariableEPNS_12DIExpressionEEEES6_S6_S6_ENK3$_0clES6_"(ptr noundef nonnull align 1 dereferenceable(1) %11, i64 %73)
  %75 = call noundef ptr @_ZN4llvm17DIGenericSubrange3getERNS_11LLVMContextEPNS_8MetadataES4_S4_S4_(ptr noundef nonnull align 8 dereferenceable(8) %42, ptr noundef %50, ptr noundef %58, ptr noundef %66, ptr noundef %74)
  ret ptr %75
}