; Function Attrs: mustprogress nounwind uwtable
define dso_local noundef ptr @_ZN4llvm9DIBuilder26getOrCreateGenericSubrangeENS_12PointerUnionIJPNS_10DIVariableEPNS_12DIExpressionEEEES6_S6_S6_(ptr nocapture noundef nonnull readonly align 8 dereferenceable(416) %0, i64 %1, i64 %2, i64 %3, i64 %4) local_unnamed_addr #0 align 2 {
  %6 = getelementptr inbounds nuw i8, ptr %0, i64 8
  %7 = load ptr, ptr %6, align 8
  %.v.i = and i64 %1, -8
  %8 = inttoptr i64 %.v.i to ptr
  %.v.i8 = and i64 %2, -8
  %9 = inttoptr i64 %.v.i8 to ptr
  %.v.i9 = and i64 %3, -8
  %10 = inttoptr i64 %.v.i9 to ptr
  %.v.i10 = and i64 %4, -8
  %11 = inttoptr i64 %.v.i10 to ptr
  %12 = tail call noundef ptr @_ZN4llvm17DIGenericSubrange7getImplERNS_11LLVMContextEPNS_8MetadataES4_S4_S4_NS3_11StorageTypeEb(ptr noundef nonnull align 8 dereferenceable(8) %7, ptr noundef %8, ptr noundef %9, ptr noundef %10, ptr noundef %11, i32 noundef 0, i1 noundef zeroext true) #13
  ret ptr %12
}